ARM GAS  C:\Users\Mykola\AppData\Local\Temp\ccaKuMZ8.s 			page 1


   1              		.cpu cortex-m0
   2              		.fpu softvfp
   3              		.eabi_attribute 20, 1
   4              		.eabi_attribute 21, 1
   5              		.eabi_attribute 23, 3
   6              		.eabi_attribute 24, 1
   7              		.eabi_attribute 25, 1
   8              		.eabi_attribute 26, 1
   9              		.eabi_attribute 30, 1
  10              		.eabi_attribute 34, 0
  11              		.eabi_attribute 18, 4
  12              		.code	16
  13              		.file	"dc_motor_library.c"
  14              		.text
  15              	.Ltext0:
  16              		.cfi_sections	.debug_frame
  17              		.section	.text.writeShiftRegisters,"ax",%progbits
  18              		.align	2
  19              		.global	writeShiftRegisters
  20              		.code	16
  21              		.thumb_func
  22              		.type	writeShiftRegisters, %function
  23              	writeShiftRegisters:
  24              	.LFB35:
  25              		.file 1 "dc_motor_library.c"
   1:dc_motor_library.c **** #include <dc_motor_library.h>
   2:dc_motor_library.c **** 
   3:dc_motor_library.c **** //void set_register(int8 *motor_values)
   4:dc_motor_library.c **** //{
   5:dc_motor_library.c **** //    int counter = 7;
   6:dc_motor_library.c **** //     while (counter>=0)
   7:dc_motor_library.c **** //     {
   8:dc_motor_library.c **** //         if (!Clock_Read())
   9:dc_motor_library.c **** //         {
  10:dc_motor_library.c **** //            Data_Write(motor_values[counter]);
  11:dc_motor_library.c **** //            Fix_Write(0);
  12:dc_motor_library.c **** //            Clock_Write(1);
  13:dc_motor_library.c **** //            CyDelay(20);
  14:dc_motor_library.c **** //         }
  15:dc_motor_library.c **** //         else
  16:dc_motor_library.c **** //         {
  17:dc_motor_library.c **** //            Clock_Write(0);
  18:dc_motor_library.c **** //            Fix_Write(1);
  19:dc_motor_library.c **** //            counter--;
  20:dc_motor_library.c **** //         }
  21:dc_motor_library.c **** //    }
  22:dc_motor_library.c **** //}
  23:dc_motor_library.c **** 
  24:dc_motor_library.c **** /**  for case with DC motor defines witch motor will work and also defines direction
  25:dc_motor_library.c ****     Write to serial (looks like SPI) port expender
  26:dc_motor_library.c ****         - 4 bytes does to first motor controller (2 H bridge control) based on L293D
  27:dc_motor_library.c ****         - 4 bytes does to second motor controller (2 H bridge control) based on L293D
  28:dc_motor_library.c ****     all that left is to use PWM for controlling motor enabled signal
  29:dc_motor_library.c ****     */
  30:dc_motor_library.c **** void writeShiftRegisters(uint8_t shift_reg)
  31:dc_motor_library.c **** {
  26              		.loc 1 31 0
ARM GAS  C:\Users\Mykola\AppData\Local\Temp\ccaKuMZ8.s 			page 2


  27              		.cfi_startproc
  28              	.LVL0:
  29 0000 38B5     		push	{r3, r4, r5, lr}
  30              		.cfi_def_cfa_offset 16
  31              		.cfi_offset 3, -16
  32              		.cfi_offset 4, -12
  33              		.cfi_offset 5, -8
  34              		.cfi_offset 14, -4
  35 0002 051C     		mov	r5, r0
  32:dc_motor_library.c ****     uint8_t i;
  33:dc_motor_library.c ****     Pin_OE_Write(0);
  36              		.loc 1 33 0
  37 0004 0020     		mov	r0, #0
  38              	.LVL1:
  39 0006 FFF7FEFF 		bl	Pin_OE_Write
  40              	.LVL2:
  34:dc_motor_library.c ****     Pin_SER_Write(0);
  41              		.loc 1 34 0
  42 000a 0020     		mov	r0, #0
  43 000c FFF7FEFF 		bl	Pin_SER_Write
  44              	.LVL3:
  35:dc_motor_library.c ****     for (i=0; i<8; i++)
  45              		.loc 1 35 0
  46 0010 0024     		mov	r4, #0
  47 0012 18E0     		b	.L2
  48              	.LVL4:
  49              	.L3:
  36:dc_motor_library.c ****     {
  37:dc_motor_library.c ****         Pin_SER_Write(0x01&shift_reg);
  50              		.loc 1 37 0 discriminator 3
  51 0014 0120     		mov	r0, #1
  52 0016 2840     		and	r0, r5
  53 0018 FFF7FEFF 		bl	Pin_SER_Write
  54              	.LVL5:
  38:dc_motor_library.c ****         shift_reg>>=1;
  55              		.loc 1 38 0 discriminator 3
  56 001c 6D08     		lsr	r5, r5, #1
  57              	.LVL6:
  39:dc_motor_library.c ****         Pin_SRCLK_Write(1);
  58              		.loc 1 39 0 discriminator 3
  59 001e 0120     		mov	r0, #1
  60 0020 FFF7FEFF 		bl	Pin_SRCLK_Write
  61              	.LVL7:
  40:dc_motor_library.c ****         Pin_RCLK_Write(0);
  62              		.loc 1 40 0 discriminator 3
  63 0024 0020     		mov	r0, #0
  64 0026 FFF7FEFF 		bl	Pin_RCLK_Write
  65              	.LVL8:
  41:dc_motor_library.c ****         CyDelay(10);
  66              		.loc 1 41 0 discriminator 3
  67 002a 0A20     		mov	r0, #10
  68 002c FFF7FEFF 		bl	CyDelay
  69              	.LVL9:
  42:dc_motor_library.c ****         Pin_SRCLK_Write(0);
  70              		.loc 1 42 0 discriminator 3
  71 0030 0020     		mov	r0, #0
  72 0032 FFF7FEFF 		bl	Pin_SRCLK_Write
ARM GAS  C:\Users\Mykola\AppData\Local\Temp\ccaKuMZ8.s 			page 3


  73              	.LVL10:
  43:dc_motor_library.c ****         Pin_RCLK_Write(1);
  74              		.loc 1 43 0 discriminator 3
  75 0036 0120     		mov	r0, #1
  76 0038 FFF7FEFF 		bl	Pin_RCLK_Write
  77              	.LVL11:
  44:dc_motor_library.c ****         CyDelay(10);
  78              		.loc 1 44 0 discriminator 3
  79 003c 0A20     		mov	r0, #10
  80 003e FFF7FEFF 		bl	CyDelay
  81              	.LVL12:
  35:dc_motor_library.c ****     {
  82              		.loc 1 35 0 discriminator 3
  83 0042 0134     		add	r4, r4, #1
  84              	.LVL13:
  85 0044 E4B2     		uxtb	r4, r4
  86              	.LVL14:
  87              	.L2:
  35:dc_motor_library.c ****     {
  88              		.loc 1 35 0 is_stmt 0 discriminator 1
  89 0046 072C     		cmp	r4, #7
  90 0048 E4D9     		bls	.L3
  45:dc_motor_library.c ****     }
  46:dc_motor_library.c ****     Pin_OE_Write(0);
  91              		.loc 1 46 0 is_stmt 1
  92 004a 0020     		mov	r0, #0
  93 004c FFF7FEFF 		bl	Pin_OE_Write
  94              	.LVL15:
  47:dc_motor_library.c **** }
  95              		.loc 1 47 0
  96              		@ sp needed
  97              	.LVL16:
  98              	.LVL17:
  99 0050 38BD     		pop	{r3, r4, r5, pc}
 100              		.cfi_endproc
 101              	.LFE35:
 102              		.size	writeShiftRegisters, .-writeShiftRegisters
 103 0052 C046     		.text
 104              	.Letext0:
 105              		.file 2 "c:\\program files (x86)\\cypress\\psoc creator\\4.0\\psoc creator\\import\\gnu\\arm\\4.9.
 106              		.file 3 "c:\\program files (x86)\\cypress\\psoc creator\\4.0\\psoc creator\\import\\gnu\\arm\\4.9.
 107              		.file 4 "Generated_Source\\PSoC4/cytypes.h"
 108              		.file 5 "Generated_Source\\PSoC4/Pin_OE.h"
 109              		.file 6 "Generated_Source\\PSoC4/Pin_SER.h"
 110              		.file 7 "Generated_Source\\PSoC4/Pin_SRCLK.h"
 111              		.file 8 "Generated_Source\\PSoC4/Pin_RCLK.h"
 112              		.file 9 "Generated_Source\\PSoC4/CyLib.h"