ARM GAS  C:\Users\Mykola\AppData\Local\Temp\cclDjhzb.s 			page 1


   1              		.cpu cortex-m0
   2              		.fpu softvfp
   3              		.eabi_attribute 20, 1
   4              		.eabi_attribute 21, 1
   5              		.eabi_attribute 23, 3
   6              		.eabi_attribute 24, 1
   7              		.eabi_attribute 25, 1
   8              		.eabi_attribute 26, 1
   9              		.eabi_attribute 30, 1
  10              		.eabi_attribute 34, 0
  11              		.eabi_attribute 18, 4
  12              		.code	16
  13              		.file	"main.c"
  14              		.text
  15              	.Ltext0:
  16              		.cfi_sections	.debug_frame
  17              		.section	.text.updateLed,"ax",%progbits
  18              		.align	2
  19              		.global	updateLed
  20              		.code	16
  21              		.thumb_func
  22              		.type	updateLed, %function
  23              	updateLed:
  24              	.LFB35:
  25              		.file 1 "main.c"
   1:main.c        **** #include <project.h>
   2:main.c        **** #include <dc_motor_library.h>
   3:main.c        **** 
   4:main.c        **** uint16 fingerPos    = 0xFFFF;
   5:main.c        **** uint16 fingerPosOld = 0xFFFF;
   6:main.c        **** 
   7:main.c        **** uint8_t registers_ahead = 0b10101010;
   8:main.c        **** uint8_t registers_backward = 0b01010101;
   9:main.c        **** uint8_t registers_direction = 0b10101010;
  10:main.c        **** 
  11:main.c        **** int capsenseNotify;
  12:main.c        **** 
  13:main.c        **** /***************************************************************
  14:main.c        ****  * Function to update the LED state in the GATT database
  15:main.c        ****  **************************************************************/
  16:main.c        **** void updateLed()
  17:main.c        **** {
  26              		.loc 1 17 0
  27              		.cfi_startproc
  28 0000 00B5     		push	{lr}
  29              		.cfi_def_cfa_offset 4
  30              		.cfi_offset 14, -4
  31 0002 85B0     		sub	sp, sp, #20
  32              		.cfi_def_cfa_offset 24
  18:main.c        ****     CYBLE_GATTS_HANDLE_VALUE_NTF_T 	tempHandle;
  19:main.c        ****    
  20:main.c        ****     uint8 red_State = !red_Read();
  33              		.loc 1 20 0
  34 0004 FFF7FEFF 		bl	red_Read
  35              	.LVL0:
  36 0008 4342     		neg	r3, r0
  37 000a 4341     		adc	r3, r3, r0
ARM GAS  C:\Users\Mykola\AppData\Local\Temp\cclDjhzb.s 			page 2


  38 000c 6A46     		mov	r2, sp
  39 000e D370     		strb	r3, [r2, #3]
  40 0010 0332     		add	r2, r2, #3
  21:main.c        ****     
  22:main.c        ****     if(CyBle_GetState() != CYBLE_STATE_CONNECTED)
  41              		.loc 1 22 0
  42 0012 084B     		ldr	r3, .L4
  43 0014 1B78     		ldrb	r3, [r3]
  44 0016 022B     		cmp	r3, #2
  45 0018 0AD1     		bne	.L1
  23:main.c        ****         return;
  24:main.c        ****     
  25:main.c        ****     tempHandle.attrHandle = CYBLE_LEDCAPSENSE_LED_CHAR_HANDLE;
  46              		.loc 1 25 0
  47 001a 01A8     		add	r0, sp, #4
  48 001c 0C33     		add	r3, r3, #12
  49 001e 0381     		strh	r3, [r0, #8]
  26:main.c        ****   	tempHandle.value.val = (uint8 *) &red_State;
  50              		.loc 1 26 0
  51 0020 0192     		str	r2, [sp, #4]
  27:main.c        ****     tempHandle.value.len = 1;
  52              		.loc 1 27 0
  53 0022 0123     		mov	r3, #1
  54 0024 8380     		strh	r3, [r0, #4]
  28:main.c        ****     CyBle_GattsWriteAttributeValue(&tempHandle,0,&cyBle_connHandle,CYBLE_GATT_DB_LOCALLY_INITIATED)
  55              		.loc 1 28 0
  56 0026 0021     		mov	r1, #0
  57 0028 034A     		ldr	r2, .L4+4
  58 002a 0023     		mov	r3, #0
  59 002c FFF7FEFF 		bl	CyBle_GattsWriteAttributeValue
  60              	.LVL1:
  61              	.L1:
  29:main.c        **** }
  62              		.loc 1 29 0
  63 0030 05B0     		add	sp, sp, #20
  64              		@ sp needed
  65 0032 00BD     		pop	{pc}
  66              	.L5:
  67              		.align	2
  68              	.L4:
  69 0034 00000000 		.word	cyBle_state
  70 0038 00000000 		.word	cyBle_connHandle
  71              		.cfi_endproc
  72              	.LFE35:
  73              		.size	updateLed, .-updateLed
  74              		.section	.text.updateGreenLed,"ax",%progbits
  75              		.align	2
  76              		.global	updateGreenLed
  77              		.code	16
  78              		.thumb_func
  79              		.type	updateGreenLed, %function
  80              	updateGreenLed:
  81              	.LFB36:
  30:main.c        **** 
  31:main.c        **** void updateGreenLed() 
  32:main.c        **** {
  82              		.loc 1 32 0
ARM GAS  C:\Users\Mykola\AppData\Local\Temp\cclDjhzb.s 			page 3


  83              		.cfi_startproc
  84 0000 00B5     		push	{lr}
  85              		.cfi_def_cfa_offset 4
  86              		.cfi_offset 14, -4
  87 0002 85B0     		sub	sp, sp, #20
  88              		.cfi_def_cfa_offset 24
  33:main.c        ****     CYBLE_GATTS_HANDLE_VALUE_NTF_T 	tempHandle;
  34:main.c        ****    
  35:main.c        ****     uint8 green_State = !green_Read();
  89              		.loc 1 35 0
  90 0004 FFF7FEFF 		bl	green_Read
  91              	.LVL2:
  92 0008 4342     		neg	r3, r0
  93 000a 4341     		adc	r3, r3, r0
  94 000c 6A46     		mov	r2, sp
  95 000e D370     		strb	r3, [r2, #3]
  96 0010 0332     		add	r2, r2, #3
  36:main.c        ****     
  37:main.c        ****     if(CyBle_GetState() != CYBLE_STATE_CONNECTED)
  97              		.loc 1 37 0
  98 0012 084B     		ldr	r3, .L9
  99 0014 1B78     		ldrb	r3, [r3]
 100 0016 022B     		cmp	r3, #2
 101 0018 0AD1     		bne	.L6
  38:main.c        ****         return;
  39:main.c        ****     
  40:main.c        ****     tempHandle.attrHandle = CYBLE_LEDCAPSENSE_GREEN_CHAR_HANDLE;
 102              		.loc 1 40 0
 103 001a 01A8     		add	r0, sp, #4
 104 001c 1333     		add	r3, r3, #19
 105 001e 0381     		strh	r3, [r0, #8]
  41:main.c        ****   	tempHandle.value.val = (uint8 *) &green_State;
 106              		.loc 1 41 0
 107 0020 0192     		str	r2, [sp, #4]
  42:main.c        ****     tempHandle.value.len = 1;
 108              		.loc 1 42 0
 109 0022 0123     		mov	r3, #1
 110 0024 8380     		strh	r3, [r0, #4]
  43:main.c        ****     CyBle_GattsWriteAttributeValue(&tempHandle,0,&cyBle_connHandle,CYBLE_GATT_DB_LOCALLY_INITIATED)
 111              		.loc 1 43 0
 112 0026 0021     		mov	r1, #0
 113 0028 034A     		ldr	r2, .L9+4
 114 002a 0023     		mov	r3, #0
 115 002c FFF7FEFF 		bl	CyBle_GattsWriteAttributeValue
 116              	.LVL3:
 117              	.L6:
  44:main.c        **** }
 118              		.loc 1 44 0
 119 0030 05B0     		add	sp, sp, #20
 120              		@ sp needed
 121 0032 00BD     		pop	{pc}
 122              	.L10:
 123              		.align	2
 124              	.L9:
 125 0034 00000000 		.word	cyBle_state
 126 0038 00000000 		.word	cyBle_connHandle
 127              		.cfi_endproc
ARM GAS  C:\Users\Mykola\AppData\Local\Temp\cclDjhzb.s 			page 4


 128              	.LFE36:
 129              		.size	updateGreenLed, .-updateGreenLed
 130              		.section	.text.updateDirection,"ax",%progbits
 131              		.align	2
 132              		.global	updateDirection
 133              		.code	16
 134              		.thumb_func
 135              		.type	updateDirection, %function
 136              	updateDirection:
 137              	.LFB37:
  45:main.c        **** 
  46:main.c        **** void updateDirection() 
  47:main.c        **** {
 138              		.loc 1 47 0
 139              		.cfi_startproc
 140 0000 00B5     		push	{lr}
 141              		.cfi_def_cfa_offset 4
 142              		.cfi_offset 14, -4
 143 0002 85B0     		sub	sp, sp, #20
 144              		.cfi_def_cfa_offset 24
  48:main.c        ****     CYBLE_GATTS_HANDLE_VALUE_NTF_T 	tempHandle;
  49:main.c        ****    
  50:main.c        ****     //uint8 green_State = !green_Read();
  51:main.c        ****     
  52:main.c        ****     if(CyBle_GetState() != CYBLE_STATE_CONNECTED)
 145              		.loc 1 52 0
 146 0004 074B     		ldr	r3, .L14
 147 0006 1B78     		ldrb	r3, [r3]
 148 0008 022B     		cmp	r3, #2
 149 000a 09D1     		bne	.L11
  53:main.c        ****         return;
  54:main.c        ****     
  55:main.c        ****     tempHandle.attrHandle = CYBLE_LEDCAPSENSE_DEFINE_DIRECTION_CHAR_HANDLE;
 150              		.loc 1 55 0
 151 000c 01A8     		add	r0, sp, #4
 152 000e 1633     		add	r3, r3, #22
 153 0010 0381     		strh	r3, [r0, #8]
  56:main.c        ****   	//tempHandle.value.val = (uint8 *) &green_State;
  57:main.c        ****     tempHandle.value.len = 1;
 154              		.loc 1 57 0
 155 0012 173B     		sub	r3, r3, #23
 156 0014 8380     		strh	r3, [r0, #4]
  58:main.c        ****     CyBle_GattsWriteAttributeValue(&tempHandle,0,&cyBle_connHandle,CYBLE_GATT_DB_LOCALLY_INITIATED)
 157              		.loc 1 58 0
 158 0016 0021     		mov	r1, #0
 159 0018 034A     		ldr	r2, .L14+4
 160 001a 0023     		mov	r3, #0
 161 001c FFF7FEFF 		bl	CyBle_GattsWriteAttributeValue
 162              	.LVL4:
 163              	.L11:
  59:main.c        **** }
 164              		.loc 1 59 0
 165 0020 05B0     		add	sp, sp, #20
 166              		@ sp needed
 167 0022 00BD     		pop	{pc}
 168              	.L15:
 169              		.align	2
ARM GAS  C:\Users\Mykola\AppData\Local\Temp\cclDjhzb.s 			page 5


 170              	.L14:
 171 0024 00000000 		.word	cyBle_state
 172 0028 00000000 		.word	cyBle_connHandle
 173              		.cfi_endproc
 174              	.LFE37:
 175              		.size	updateDirection, .-updateDirection
 176              		.section	.text.updateCapsense,"ax",%progbits
 177              		.align	2
 178              		.global	updateCapsense
 179              		.code	16
 180              		.thumb_func
 181              		.type	updateCapsense, %function
 182              	updateCapsense:
 183              	.LFB38:
  60:main.c        **** 
  61:main.c        **** /***************************************************************
  62:main.c        ****  * Function to update the CapSesnse state in the GATT database
  63:main.c        ****  **************************************************************/
  64:main.c        **** void updateCapsense()
  65:main.c        **** {
 184              		.loc 1 65 0
 185              		.cfi_startproc
 186 0000 00B5     		push	{lr}
 187              		.cfi_def_cfa_offset 4
 188              		.cfi_offset 14, -4
 189 0002 85B0     		sub	sp, sp, #20
 190              		.cfi_def_cfa_offset 24
  66:main.c        ****     if(CyBle_GetState() != CYBLE_STATE_CONNECTED)
 191              		.loc 1 66 0
 192 0004 124B     		ldr	r3, .L20
 193 0006 1B78     		ldrb	r3, [r3]
 194 0008 022B     		cmp	r3, #2
 195 000a 1FD1     		bne	.L16
  67:main.c        ****         return;
  68:main.c        ****     
  69:main.c        **** 	CYBLE_GATTS_HANDLE_VALUE_NTF_T 	tempHandle;
  70:main.c        ****     
  71:main.c        ****     tempHandle.attrHandle = CYBLE_LEDCAPSENSE_CAPSENSE_CHAR_HANDLE;
 196              		.loc 1 71 0
 197 000c 01A8     		add	r0, sp, #4
 198 000e 0F33     		add	r3, r3, #15
 199 0010 0381     		strh	r3, [r0, #8]
  72:main.c        ****   	tempHandle.value.val = (uint8 *)&fingerPos;
 200              		.loc 1 72 0
 201 0012 104B     		ldr	r3, .L20+4
 202 0014 0193     		str	r3, [sp, #4]
  73:main.c        ****     tempHandle.value.len = 2; 
 203              		.loc 1 73 0
 204 0016 0223     		mov	r3, #2
 205 0018 8380     		strh	r3, [r0, #4]
  74:main.c        ****     CyBle_GattsWriteAttributeValue(&tempHandle,0,&cyBle_connHandle,CYBLE_GATT_DB_LOCALLY_INITIATED 
 206              		.loc 1 74 0
 207 001a 0021     		mov	r1, #0
 208 001c 0E4A     		ldr	r2, .L20+8
 209 001e 0023     		mov	r3, #0
 210 0020 FFF7FEFF 		bl	CyBle_GattsWriteAttributeValue
 211              	.LVL5:
ARM GAS  C:\Users\Mykola\AppData\Local\Temp\cclDjhzb.s 			page 6


  75:main.c        ****     
  76:main.c        ****     /* send notification to client if notifications are enabled and finger location has changed */
  77:main.c        ****     if (capsenseNotify && (fingerPos != fingerPosOld) )
 212              		.loc 1 77 0
 213 0024 0D4B     		ldr	r3, .L20+12
 214 0026 1B68     		ldr	r3, [r3]
 215 0028 002B     		cmp	r3, #0
 216 002a 0CD0     		beq	.L18
 217              		.loc 1 77 0 is_stmt 0 discriminator 1
 218 002c 094B     		ldr	r3, .L20+4
 219 002e 1A88     		ldrh	r2, [r3]
 220 0030 5B88     		ldrh	r3, [r3, #2]
 221 0032 9A42     		cmp	r2, r3
 222 0034 07D0     		beq	.L18
  78:main.c        ****         CyBle_GattsNotification(cyBle_connHandle,&tempHandle);
 223              		.loc 1 78 0 is_stmt 1
 224 0036 084A     		ldr	r2, .L20+8
 225 0038 1378     		ldrb	r3, [r2]
 226 003a 5078     		ldrb	r0, [r2, #1]
 227 003c 0002     		lsl	r0, r0, #8
 228 003e 1843     		orr	r0, r3
 229 0040 01A9     		add	r1, sp, #4
 230 0042 FFF7FEFF 		bl	CyBle_GattsNotification
 231              	.LVL6:
 232              	.L18:
  79:main.c        ****         fingerPosOld = fingerPos;
 233              		.loc 1 79 0
 234 0046 034B     		ldr	r3, .L20+4
 235 0048 1A88     		ldrh	r2, [r3]
 236 004a 5A80     		strh	r2, [r3, #2]
 237              	.L16:
  80:main.c        **** }
 238              		.loc 1 80 0
 239 004c 05B0     		add	sp, sp, #20
 240              		@ sp needed
 241 004e 00BD     		pop	{pc}
 242              	.L21:
 243              		.align	2
 244              	.L20:
 245 0050 00000000 		.word	cyBle_state
 246 0054 00000000 		.word	.LANCHOR0
 247 0058 00000000 		.word	cyBle_connHandle
 248 005c 00000000 		.word	capsenseNotify
 249              		.cfi_endproc
 250              	.LFE38:
 251              		.size	updateCapsense, .-updateCapsense
 252              		.section	.text.BleCallBack,"ax",%progbits
 253              		.align	2
 254              		.global	BleCallBack
 255              		.code	16
 256              		.thumb_func
 257              		.type	BleCallBack, %function
 258              	BleCallBack:
 259              	.LFB39:
  81:main.c        **** 
  82:main.c        **** /***************************************************************
  83:main.c        ****  * Function to handle the BLE stack
ARM GAS  C:\Users\Mykola\AppData\Local\Temp\cclDjhzb.s 			page 7


  84:main.c        ****  **************************************************************/
  85:main.c        **** void BleCallBack(uint32 event, void* eventParam)
  86:main.c        **** {
 260              		.loc 1 86 0
 261              		.cfi_startproc
 262              	.LVL7:
 263 0000 38B5     		push	{r3, r4, r5, lr}
 264              		.cfi_def_cfa_offset 16
 265              		.cfi_offset 3, -16
 266              		.cfi_offset 4, -12
 267              		.cfi_offset 5, -8
 268              		.cfi_offset 14, -4
 269 0002 0C1C     		mov	r4, r1
  87:main.c        ****     CYBLE_GATTS_WRITE_REQ_PARAM_T *wrReqParam;
  88:main.c        **** 
  89:main.c        ****     switch(event)
 270              		.loc 1 89 0
 271 0004 2828     		cmp	r0, #40
 272 0006 08D0     		beq	.L24
 273 0008 02D8     		bhi	.L25
 274 000a 0128     		cmp	r0, #1
 275 000c 05D0     		beq	.L24
 276 000e D2E0     		b	.L22
 277              	.L25:
 278 0010 4128     		cmp	r0, #65
 279 0012 0BD0     		beq	.L26
 280 0014 4C28     		cmp	r0, #76
 281 0016 14D0     		beq	.L27
 282 0018 CDE0     		b	.L22
 283              	.L24:
  90:main.c        ****     {
  91:main.c        ****         /* if there is a disconnect or the stack just turned on from a reset then start the adverti
  92:main.c        ****         case CYBLE_EVT_STACK_ON:
  93:main.c        ****         case CYBLE_EVT_GAP_DEVICE_DISCONNECTED:
  94:main.c        ****             capsenseNotify = 0;
 284              		.loc 1 94 0
 285 001a 0022     		mov	r2, #0
 286 001c 664B     		ldr	r3, .L34
 287 001e 1A60     		str	r2, [r3]
  95:main.c        ****             CyBle_GappStartAdvertisement(CYBLE_ADVERTISING_FAST);
 288              		.loc 1 95 0
 289 0020 0020     		mov	r0, #0
 290              	.LVL8:
 291 0022 FFF7FEFF 		bl	CyBle_GappStartAdvertisement
 292              	.LVL9:
  96:main.c        ****             pwm_Start();
 293              		.loc 1 96 0
 294 0026 FFF7FEFF 		bl	pwm_Start
 295              	.LVL10:
  97:main.c        ****         break;
 296              		.loc 1 97 0
 297 002a C4E0     		b	.L22
 298              	.LVL11:
 299              	.L26:
  98:main.c        ****         
  99:main.c        ****         /* when a connection is made, update the LED and Capsense states in the GATT database and s
 100:main.c        ****         case CYBLE_EVT_GATT_CONNECT_IND:
ARM GAS  C:\Users\Mykola\AppData\Local\Temp\cclDjhzb.s 			page 8


 101:main.c        ****             updateLed();
 300              		.loc 1 101 0
 301 002c FFF7FEFF 		bl	updateLed
 302              	.LVL12:
 102:main.c        ****             updateGreenLed();
 303              		.loc 1 102 0
 304 0030 FFF7FEFF 		bl	updateGreenLed
 305              	.LVL13:
 103:main.c        ****             updateCapsense();  
 306              		.loc 1 103 0
 307 0034 FFF7FEFF 		bl	updateCapsense
 308              	.LVL14:
 104:main.c        ****             updateDirection();
 309              		.loc 1 104 0
 310 0038 FFF7FEFF 		bl	updateDirection
 311              	.LVL15:
 105:main.c        ****             pwm_Stop();
 312              		.loc 1 105 0
 313 003c FFF7FEFF 		bl	pwm_Stop
 314              	.LVL16:
 106:main.c        **** 		break;
 315              		.loc 1 106 0
 316 0040 B9E0     		b	.L22
 317              	.LVL17:
 318              	.L27:
 107:main.c        **** 
 108:main.c        ****         /* handle a write request */
 109:main.c        ****         case CYBLE_EVT_GATTS_WRITE_REQ:
 110:main.c        ****             wrReqParam = (CYBLE_GATTS_WRITE_REQ_PARAM_T *) eventParam;
 111:main.c        **** 			      
 112:main.c        ****             /* request write the LED value */
 113:main.c        ****             if(wrReqParam->handleValPair.attrHandle == CYBLE_LEDCAPSENSE_LED_CHAR_HANDLE)
 319              		.loc 1 113 0
 320 0042 8B89     		ldrh	r3, [r1, #12]
 321 0044 0E2B     		cmp	r3, #14
 322 0046 3CD1     		bne	.L28
 114:main.c        ****             {
 115:main.c        ****                 /* only update the value and write the response if the requested write is allowed *
 116:main.c        ****                 if(CYBLE_GATT_ERR_NONE == CyBle_GattsWriteAttributeValue(&wrReqParam->handleValPair
 323              		.loc 1 116 0
 324 0048 081D     		add	r0, r1, #4
 325              	.LVL18:
 326 004a 0021     		mov	r1, #0
 327              	.LVL19:
 328 004c 5B4A     		ldr	r2, .L34+4
 329 004e 3233     		add	r3, r3, #50
 330 0050 FFF7FEFF 		bl	CyBle_GattsWriteAttributeValue
 331              	.LVL20:
 332 0054 0028     		cmp	r0, #0
 333 0056 34D1     		bne	.L28
 117:main.c        ****                 {
 118:main.c        ****                     if(!wrReqParam->handleValPair.value.val[0]) // off
 334              		.loc 1 118 0
 335 0058 6368     		ldr	r3, [r4, #4]
 336 005a 1B78     		ldrb	r3, [r3]
 337 005c 002B     		cmp	r3, #0
 338 005e 0CD1     		bne	.L29
ARM GAS  C:\Users\Mykola\AppData\Local\Temp\cclDjhzb.s 			page 9


 119:main.c        ****                     {
 120:main.c        ****                     red_Write(!wrReqParam->handleValPair.value.val[0]);
 339              		.loc 1 120 0
 340 0060 5842     		neg	r0, r3
 341 0062 5841     		adc	r0, r0, r3
 342 0064 C0B2     		uxtb	r0, r0
 343 0066 FFF7FEFF 		bl	red_Write
 344              	.LVL21:
 121:main.c        ****                     CyBle_GattsWriteRsp(cyBle_connHandle);
 345              		.loc 1 121 0
 346 006a 544A     		ldr	r2, .L34+4
 347 006c 1378     		ldrb	r3, [r2]
 348 006e 5078     		ldrb	r0, [r2, #1]
 349 0070 0002     		lsl	r0, r0, #8
 350 0072 1843     		orr	r0, r3
 351 0074 FFF7FEFF 		bl	CyBle_GattsWriteRsp
 352              	.LVL22:
 353 0078 23E0     		b	.L28
 354              	.L29:
 122:main.c        **** 
 123:main.c        ****                     } else { // on
 124:main.c        ****                         red_Write(!wrReqParam->handleValPair.value.val[0]);
 355              		.loc 1 124 0
 356 007a 5842     		neg	r0, r3
 357 007c 5841     		adc	r0, r0, r3
 358 007e C0B2     		uxtb	r0, r0
 359 0080 FFF7FEFF 		bl	red_Write
 360              	.LVL23:
 125:main.c        ****                     CyBle_GattsWriteRsp(cyBle_connHandle);
 361              		.loc 1 125 0
 362 0084 4D4A     		ldr	r2, .L34+4
 363 0086 1378     		ldrb	r3, [r2]
 364 0088 5078     		ldrb	r0, [r2, #1]
 365 008a 0002     		lsl	r0, r0, #8
 366 008c 1843     		orr	r0, r3
 367 008e FFF7FEFF 		bl	CyBle_GattsWriteRsp
 368              	.LVL24:
 126:main.c        ****                                         
 127:main.c        ****                     CyDelay(1000);
 369              		.loc 1 127 0
 370 0092 FA20     		mov	r0, #250
 371 0094 8000     		lsl	r0, r0, #2
 372 0096 FFF7FEFF 		bl	CyDelay
 373              	.LVL25:
 128:main.c        ****                     writeShiftRegisters(registers_direction); // напрямок вперед
 374              		.loc 1 128 0
 375 009a 494B     		ldr	r3, .L34+8
 376 009c 1879     		ldrb	r0, [r3, #4]
 377 009e FFF7FEFF 		bl	writeShiftRegisters
 378              	.LVL26:
 129:main.c        ****                     Pin_l293_IC1_EN_12_Write(1);
 379              		.loc 1 129 0
 380 00a2 0120     		mov	r0, #1
 381 00a4 FFF7FEFF 		bl	Pin_l293_IC1_EN_12_Write
 382              	.LVL27:
 130:main.c        ****                     Pin_l293_IC1_EN_34_Write(0);
 383              		.loc 1 130 0
ARM GAS  C:\Users\Mykola\AppData\Local\Temp\cclDjhzb.s 			page 10


 384 00a8 0020     		mov	r0, #0
 385 00aa FFF7FEFF 		bl	Pin_l293_IC1_EN_34_Write
 386              	.LVL28:
 131:main.c        ****                     CyDelay(500);
 387              		.loc 1 131 0
 388 00ae FA20     		mov	r0, #250
 389 00b0 4000     		lsl	r0, r0, #1
 390 00b2 FFF7FEFF 		bl	CyDelay
 391              	.LVL29:
 132:main.c        ****                     Pin_l293_IC1_EN_12_Write(0);    // turns off left motor
 392              		.loc 1 132 0
 393 00b6 0020     		mov	r0, #0
 394 00b8 FFF7FEFF 		bl	Pin_l293_IC1_EN_12_Write
 395              	.LVL30:
 133:main.c        **** //                  CyDelay(200);                   // left motor ends rotating later
 134:main.c        ****                     Pin_l293_IC1_EN_34_Write(0);    // turns off right motor
 396              		.loc 1 134 0
 397 00bc 0020     		mov	r0, #0
 398 00be FFF7FEFF 		bl	Pin_l293_IC1_EN_34_Write
 399              	.LVL31:
 400              	.L28:
 135:main.c        ****                     }   
 136:main.c        ****                     
 137:main.c        **** //                    red_Write(!wrReqParam->handleValPair.value.val[0]);
 138:main.c        **** //                    CyBle_GattsWriteRsp(cyBle_connHandle);
 139:main.c        **** //                    
 140:main.c        **** //                    CyDelay(1000);
 141:main.c        **** //                    writeShiftRegisters(0b10101010); // напрямок вперед
 142:main.c        **** //                    Pin_l293_IC1_EN_12_Write(1);
 143:main.c        **** //                    Pin_l293_IC1_EN_34_Write(0);
 144:main.c        **** //                    CyDelay(500);
 145:main.c        **** //                    Pin_l293_IC1_EN_12_Write(0);    // turns off left motor
 146:main.c        **** ////                    CyDelay(200);                   // left motor ends rotating later
 147:main.c        **** //                    Pin_l293_IC1_EN_34_Write(0);    // turns off right motor
 148:main.c        ****                     
 149:main.c        ****                 }
 150:main.c        ****             }
 151:main.c        ****              if(wrReqParam->handleValPair.attrHandle == CYBLE_LEDCAPSENSE_GREEN_CHAR_HANDLE)
 401              		.loc 1 151 0
 402 00c2 A389     		ldrh	r3, [r4, #12]
 403 00c4 152B     		cmp	r3, #21
 404 00c6 3CD1     		bne	.L30
 152:main.c        ****             {
 153:main.c        ****                 /* only update the value and write the response if the requested write is allowed *
 154:main.c        ****                 if(CYBLE_GATT_ERR_NONE == CyBle_GattsWriteAttributeValue(&wrReqParam->handleValPair
 405              		.loc 1 154 0
 406 00c8 201D     		add	r0, r4, #4
 407 00ca 0021     		mov	r1, #0
 408 00cc 3B4A     		ldr	r2, .L34+4
 409 00ce 2B33     		add	r3, r3, #43
 410 00d0 FFF7FEFF 		bl	CyBle_GattsWriteAttributeValue
 411              	.LVL32:
 412 00d4 0028     		cmp	r0, #0
 413 00d6 34D1     		bne	.L30
 155:main.c        ****                 {
 156:main.c        ****                     
 157:main.c        ****                     if(!wrReqParam->handleValPair.value.val[0])
ARM GAS  C:\Users\Mykola\AppData\Local\Temp\cclDjhzb.s 			page 11


 414              		.loc 1 157 0
 415 00d8 6368     		ldr	r3, [r4, #4]
 416 00da 1B78     		ldrb	r3, [r3]
 417 00dc 002B     		cmp	r3, #0
 418 00de 0CD1     		bne	.L31
 158:main.c        ****                     {
 159:main.c        ****                     green_Write(!wrReqParam->handleValPair.value.val[0]);
 419              		.loc 1 159 0
 420 00e0 5842     		neg	r0, r3
 421 00e2 5841     		adc	r0, r0, r3
 422 00e4 C0B2     		uxtb	r0, r0
 423 00e6 FFF7FEFF 		bl	green_Write
 424              	.LVL33:
 160:main.c        ****                     CyBle_GattsWriteRsp(cyBle_connHandle);
 425              		.loc 1 160 0
 426 00ea 344A     		ldr	r2, .L34+4
 427 00ec 1378     		ldrb	r3, [r2]
 428 00ee 5078     		ldrb	r0, [r2, #1]
 429 00f0 0002     		lsl	r0, r0, #8
 430 00f2 1843     		orr	r0, r3
 431 00f4 FFF7FEFF 		bl	CyBle_GattsWriteRsp
 432              	.LVL34:
 433 00f8 23E0     		b	.L30
 434              	.L31:
 161:main.c        ****                     }
 162:main.c        ****                     else
 163:main.c        ****                     {
 164:main.c        ****                     green_Write(!wrReqParam->handleValPair.value.val[0]);
 435              		.loc 1 164 0
 436 00fa 5842     		neg	r0, r3
 437 00fc 5841     		adc	r0, r0, r3
 438 00fe C0B2     		uxtb	r0, r0
 439 0100 FFF7FEFF 		bl	green_Write
 440              	.LVL35:
 165:main.c        ****                     CyBle_GattsWriteRsp(cyBle_connHandle);
 441              		.loc 1 165 0
 442 0104 2D4A     		ldr	r2, .L34+4
 443 0106 1378     		ldrb	r3, [r2]
 444 0108 5078     		ldrb	r0, [r2, #1]
 445 010a 0002     		lsl	r0, r0, #8
 446 010c 1843     		orr	r0, r3
 447 010e FFF7FEFF 		bl	CyBle_GattsWriteRsp
 448              	.LVL36:
 166:main.c        ****                     
 167:main.c        ****                          // -------------left motors ahead
 168:main.c        ****                     CyDelay(1000);
 449              		.loc 1 168 0
 450 0112 FA20     		mov	r0, #250
 451 0114 8000     		lsl	r0, r0, #2
 452 0116 FFF7FEFF 		bl	CyDelay
 453              	.LVL37:
 169:main.c        ****                     writeShiftRegisters(registers_direction); // напрямок вперед
 454              		.loc 1 169 0
 455 011a 294B     		ldr	r3, .L34+8
 456 011c 1879     		ldrb	r0, [r3, #4]
 457 011e FFF7FEFF 		bl	writeShiftRegisters
 458              	.LVL38:
ARM GAS  C:\Users\Mykola\AppData\Local\Temp\cclDjhzb.s 			page 12


 170:main.c        ****                     Pin_l293_IC1_EN_12_Write(0);
 459              		.loc 1 170 0
 460 0122 0020     		mov	r0, #0
 461 0124 FFF7FEFF 		bl	Pin_l293_IC1_EN_12_Write
 462              	.LVL39:
 171:main.c        ****                     Pin_l293_IC1_EN_34_Write(1);
 463              		.loc 1 171 0
 464 0128 0120     		mov	r0, #1
 465 012a FFF7FEFF 		bl	Pin_l293_IC1_EN_34_Write
 466              	.LVL40:
 172:main.c        ****                     CyDelay(500);
 467              		.loc 1 172 0
 468 012e FA20     		mov	r0, #250
 469 0130 4000     		lsl	r0, r0, #1
 470 0132 FFF7FEFF 		bl	CyDelay
 471              	.LVL41:
 173:main.c        ****                     Pin_l293_IC1_EN_12_Write(0);    // turns off left motor
 472              		.loc 1 173 0
 473 0136 0020     		mov	r0, #0
 474 0138 FFF7FEFF 		bl	Pin_l293_IC1_EN_12_Write
 475              	.LVL42:
 174:main.c        ****                     //CyDelay(200);                   // left motor ends rotating later
 175:main.c        ****                     Pin_l293_IC1_EN_34_Write(0);    // turns off right motor
 476              		.loc 1 175 0
 477 013c 0020     		mov	r0, #0
 478 013e FFF7FEFF 		bl	Pin_l293_IC1_EN_34_Write
 479              	.LVL43:
 480              	.L30:
 176:main.c        ****                     }
 177:main.c        ****                 }
 178:main.c        ****             
 179:main.c        ****             }
 180:main.c        ****             
 181:main.c        ****              if(wrReqParam->handleValPair.attrHandle == CYBLE_LEDCAPSENSE_DEFINE_DIRECTION_CHAR_HAN
 481              		.loc 1 181 0
 482 0142 A389     		ldrh	r3, [r4, #12]
 483 0144 182B     		cmp	r3, #24
 484 0146 20D1     		bne	.L32
 182:main.c        ****             {
 183:main.c        ****                                 /* only update the value and write the response if the requested wr
 184:main.c        ****                 if(CYBLE_GATT_ERR_NONE == CyBle_GattsWriteAttributeValue(&wrReqParam->handleValPair
 485              		.loc 1 184 0
 486 0148 201D     		add	r0, r4, #4
 487 014a 0021     		mov	r1, #0
 488 014c 1B4A     		ldr	r2, .L34+4
 489 014e 2833     		add	r3, r3, #40
 490 0150 FFF7FEFF 		bl	CyBle_GattsWriteAttributeValue
 491              	.LVL44:
 492 0154 0028     		cmp	r0, #0
 493 0156 18D1     		bne	.L32
 185:main.c        ****                 {
 186:main.c        ****                     if(!wrReqParam->handleValPair.value.val[0]) // off
 494              		.loc 1 186 0
 495 0158 6368     		ldr	r3, [r4, #4]
 496 015a 1B78     		ldrb	r3, [r3]
 497 015c 002B     		cmp	r3, #0
 498 015e 0AD1     		bne	.L33
ARM GAS  C:\Users\Mykola\AppData\Local\Temp\cclDjhzb.s 			page 13


 187:main.c        ****                     {
 188:main.c        ****                         registers_direction = registers_backward;
 499              		.loc 1 188 0
 500 0160 174B     		ldr	r3, .L34+8
 501 0162 5A79     		ldrb	r2, [r3, #5]
 502 0164 1A71     		strb	r2, [r3, #4]
 189:main.c        ****                         CyBle_GattsWriteRsp(cyBle_connHandle);
 503              		.loc 1 189 0
 504 0166 154A     		ldr	r2, .L34+4
 505 0168 1378     		ldrb	r3, [r2]
 506 016a 5078     		ldrb	r0, [r2, #1]
 507 016c 0002     		lsl	r0, r0, #8
 508 016e 1843     		orr	r0, r3
 509 0170 FFF7FEFF 		bl	CyBle_GattsWriteRsp
 510              	.LVL45:
 511 0174 09E0     		b	.L32
 512              	.L33:
 190:main.c        ****                     } else { // on
 191:main.c        ****                         registers_direction = registers_ahead;
 513              		.loc 1 191 0
 514 0176 124B     		ldr	r3, .L34+8
 515 0178 9A79     		ldrb	r2, [r3, #6]
 516 017a 1A71     		strb	r2, [r3, #4]
 192:main.c        ****                         CyBle_GattsWriteRsp(cyBle_connHandle);
 517              		.loc 1 192 0
 518 017c 0F4A     		ldr	r2, .L34+4
 519 017e 1378     		ldrb	r3, [r2]
 520 0180 5078     		ldrb	r0, [r2, #1]
 521 0182 0002     		lsl	r0, r0, #8
 522 0184 1843     		orr	r0, r3
 523 0186 FFF7FEFF 		bl	CyBle_GattsWriteRsp
 524              	.LVL46:
 525              	.L32:
 193:main.c        ****                     }
 194:main.c        ****                 }
 195:main.c        ****             }
 196:main.c        ****             
 197:main.c        ****             /* request to update the CapSense notification */
 198:main.c        ****             if(wrReqParam->handleValPair.attrHandle == CYBLE_LEDCAPSENSE_CAPSENSE_CAPSENSECCCD_DESC
 526              		.loc 1 198 0
 527 018a A389     		ldrh	r3, [r4, #12]
 528 018c 122B     		cmp	r3, #18
 529 018e 12D1     		bne	.L22
 199:main.c        ****             {
 200:main.c        ****                 CyBle_GattsWriteAttributeValue(&wrReqParam->handleValPair, 0, &cyBle_connHandle, CY
 530              		.loc 1 200 0
 531 0190 201D     		add	r0, r4, #4
 532 0192 0A4D     		ldr	r5, .L34+4
 533 0194 0021     		mov	r1, #0
 534 0196 2A1C     		mov	r2, r5
 535 0198 2E33     		add	r3, r3, #46
 536 019a FFF7FEFF 		bl	CyBle_GattsWriteAttributeValue
 537              	.LVL47:
 201:main.c        ****                 capsenseNotify = wrReqParam->handleValPair.value.val[0] & 0x01;
 538              		.loc 1 201 0
 539 019e 6368     		ldr	r3, [r4, #4]
 540 01a0 1B78     		ldrb	r3, [r3]
ARM GAS  C:\Users\Mykola\AppData\Local\Temp\cclDjhzb.s 			page 14


 541 01a2 0122     		mov	r2, #1
 542 01a4 1340     		and	r3, r2
 543 01a6 044A     		ldr	r2, .L34
 544 01a8 1360     		str	r3, [r2]
 202:main.c        ****                 CyBle_GattsWriteRsp(cyBle_connHandle);
 545              		.loc 1 202 0
 546 01aa 2B78     		ldrb	r3, [r5]
 547 01ac 6878     		ldrb	r0, [r5, #1]
 548 01ae 0002     		lsl	r0, r0, #8
 549 01b0 1843     		orr	r0, r3
 550 01b2 FFF7FEFF 		bl	CyBle_GattsWriteRsp
 551              	.LVL48:
 552              	.L22:
 203:main.c        ****             }		
 204:main.c        **** 			break;  
 205:main.c        ****         
 206:main.c        ****         default:
 207:main.c        ****             break;
 208:main.c        ****     }
 209:main.c        **** } 
 553              		.loc 1 209 0
 554              		@ sp needed
 555              	.LVL49:
 556 01b6 38BD     		pop	{r3, r4, r5, pc}
 557              	.L35:
 558              		.align	2
 559              	.L34:
 560 01b8 00000000 		.word	capsenseNotify
 561 01bc 00000000 		.word	cyBle_connHandle
 562 01c0 00000000 		.word	.LANCHOR0
 563              		.cfi_endproc
 564              	.LFE39:
 565              		.size	BleCallBack, .-BleCallBack
 566              		.section	.text.main,"ax",%progbits
 567              		.align	2
 568              		.global	main
 569              		.code	16
 570              		.thumb_func
 571              		.type	main, %function
 572              	main:
 573              	.LFB40:
 210:main.c        **** 
 211:main.c        **** /***************************************************************
 212:main.c        ****  * Main
 213:main.c        ****  **************************************************************/
 214:main.c        **** int main()
 215:main.c        **** {
 574              		.loc 1 215 0
 575              		.cfi_startproc
 576 0000 08B5     		push	{r3, lr}
 577              		.cfi_def_cfa_offset 8
 578              		.cfi_offset 3, -8
 579              		.cfi_offset 14, -4
 216:main.c        ****     CyGlobalIntEnable; 
 580              		.loc 1 216 0
 581              	@ 216 "main.c" 1
 582 0002 62B6     		CPSIE   i
ARM GAS  C:\Users\Mykola\AppData\Local\Temp\cclDjhzb.s 			page 15


 583              	@ 0 "" 2
 217:main.c        ****     writeShiftRegisters(0x00);
 584              		.loc 1 217 0
 585              		.code	16
 586 0004 0020     		mov	r0, #0
 587 0006 FFF7FEFF 		bl	writeShiftRegisters
 588              	.LVL50:
 218:main.c        ****     Pin_l293_IC1_EN_12_Write(1);   /* Start all motors */
 589              		.loc 1 218 0
 590 000a 0120     		mov	r0, #1
 591 000c FFF7FEFF 		bl	Pin_l293_IC1_EN_12_Write
 592              	.LVL51:
 219:main.c        ****     Pin_l293_IC1_EN_34_Write(1);
 593              		.loc 1 219 0
 594 0010 0120     		mov	r0, #1
 595 0012 FFF7FEFF 		bl	Pin_l293_IC1_EN_34_Write
 596              	.LVL52:
 220:main.c        ****     Pin_l293_IC2_EN_12_Write(1);
 597              		.loc 1 220 0
 598 0016 0120     		mov	r0, #1
 599 0018 FFF7FEFF 		bl	Pin_l293_IC2_EN_12_Write
 600              	.LVL53:
 221:main.c        ****     Pin_l293_IC2_EN_34_Write(1);
 601              		.loc 1 221 0
 602 001c 0120     		mov	r0, #1
 603 001e FFF7FEFF 		bl	Pin_l293_IC2_EN_34_Write
 604              	.LVL54:
 222:main.c        ****     
 223:main.c        ****     capsense_Start();
 605              		.loc 1 223 0
 606 0022 FFF7FEFF 		bl	capsense_Start
 607              	.LVL55:
 224:main.c        ****     capsense_InitializeEnabledBaselines();
 608              		.loc 1 224 0
 609 0026 FFF7FEFF 		bl	capsense_InitializeEnabledBaselines
 610              	.LVL56:
 225:main.c        ****     
 226:main.c        ****     /* Start BLE stack and register the callback function */
 227:main.c        ****     CyBle_Start(BleCallBack);
 611              		.loc 1 227 0
 612 002a 0B48     		ldr	r0, .L39
 613 002c FFF7FEFF 		bl	CyBle_Start
 614              	.LVL57:
 615              	.L38:
 228:main.c        **** 
 229:main.c        ****     for(;;)
 230:main.c        ****     {        
 231:main.c        ****         /* if Capsense scan is done, read the value and start another scan */
 232:main.c        ****         if(!capsense_IsBusy())
 616              		.loc 1 232 0
 617 0030 FFF7FEFF 		bl	capsense_IsBusy
 618              	.LVL58:
 619 0034 0028     		cmp	r0, #0
 620 0036 09D1     		bne	.L37
 233:main.c        ****         {
 234:main.c        ****             fingerPos=capsense_GetCentroidPos(capsense_LINEARSLIDER0__LS);
 621              		.loc 1 234 0
ARM GAS  C:\Users\Mykola\AppData\Local\Temp\cclDjhzb.s 			page 16


 622 0038 FFF7FEFF 		bl	capsense_GetCentroidPos
 623              	.LVL59:
 624 003c 074B     		ldr	r3, .L39+4
 625 003e 1880     		strh	r0, [r3]
 235:main.c        ****             capsense_UpdateEnabledBaselines();
 626              		.loc 1 235 0
 627 0040 FFF7FEFF 		bl	capsense_UpdateEnabledBaselines
 628              	.LVL60:
 236:main.c        ****             capsense_ScanEnabledWidgets();
 629              		.loc 1 236 0
 630 0044 FFF7FEFF 		bl	capsense_ScanEnabledWidgets
 631              	.LVL61:
 237:main.c        ****             updateCapsense();
 632              		.loc 1 237 0
 633 0048 FFF7FEFF 		bl	updateCapsense
 634              	.LVL62:
 635              	.L37:
 238:main.c        ****         }
 239:main.c        ****    
 240:main.c        ****         CyBle_ProcessEvents();
 636              		.loc 1 240 0
 637 004c FFF7FEFF 		bl	CyBle_ProcessEvents
 638              	.LVL63:
 241:main.c        ****         CyBle_EnterLPM(CYBLE_BLESS_DEEPSLEEP);    
 639              		.loc 1 241 0
 640 0050 0320     		mov	r0, #3
 641 0052 FFF7FEFF 		bl	CyBle_EnterLPM
 642              	.LVL64:
 242:main.c        ****     }
 643              		.loc 1 242 0
 644 0056 EBE7     		b	.L38
 645              	.L40:
 646              		.align	2
 647              	.L39:
 648 0058 00000000 		.word	BleCallBack
 649 005c 00000000 		.word	.LANCHOR0
 650              		.cfi_endproc
 651              	.LFE40:
 652              		.size	main, .-main
 653              		.comm	capsenseNotify,4,4
 654              		.global	registers_direction
 655              		.global	registers_backward
 656              		.global	registers_ahead
 657              		.global	fingerPosOld
 658              		.global	fingerPos
 659              		.data
 660              		.align	1
 661              		.set	.LANCHOR0,. + 0
 662              		.type	fingerPos, %object
 663              		.size	fingerPos, 2
 664              	fingerPos:
 665 0000 FFFF     		.short	-1
 666              		.type	fingerPosOld, %object
 667              		.size	fingerPosOld, 2
 668              	fingerPosOld:
 669 0002 FFFF     		.short	-1
 670              		.type	registers_direction, %object
ARM GAS  C:\Users\Mykola\AppData\Local\Temp\cclDjhzb.s 			page 17


 671              		.size	registers_direction, 1
 672              	registers_direction:
 673 0004 AA       		.byte	-86
 674              		.type	registers_backward, %object
 675              		.size	registers_backward, 1
 676              	registers_backward:
 677 0005 55       		.byte	85
 678              		.type	registers_ahead, %object
 679              		.size	registers_ahead, 1
 680              	registers_ahead:
 681 0006 AA       		.byte	-86
 682 0007 00       		.text
 683              	.Letext0:
 684              		.file 2 "c:\\program files (x86)\\cypress\\psoc creator\\4.0\\psoc creator\\import\\gnu\\arm\\4.9.
 685              		.file 3 "c:\\program files (x86)\\cypress\\psoc creator\\4.0\\psoc creator\\import\\gnu\\arm\\4.9.
 686              		.file 4 "Generated_Source\\PSoC4/cytypes.h"
 687              		.file 5 "Generated_Source\\PSoC4/ble_Stack.h"
 688              		.file 6 "Generated_Source\\PSoC4/ble_StackGatt.h"
 689              		.file 7 "Generated_Source\\PSoC4/ble_StackGattServer.h"
 690              		.file 8 "Generated_Source\\PSoC4/ble.h"
 691              		.file 9 "Generated_Source\\PSoC4/ble_eventHandler.h"
 692              		.file 10 "Generated_Source\\PSoC4/red.h"
 693              		.file 11 "Generated_Source\\PSoC4/green.h"
 694              		.file 12 "Generated_Source\\PSoC4/ble_StackGattDb.h"
 695              		.file 13 "Generated_Source\\PSoC4/pwm.h"
 696              		.file 14 "Generated_Source\\PSoC4/CyLib.h"
 697              		.file 15 "./dc_motor_library.h"
 698              		.file 16 "Generated_Source\\PSoC4/Pin_l293_IC1_EN_12.h"
 699              		.file 17 "Generated_Source\\PSoC4/Pin_l293_IC1_EN_34.h"
 700              		.file 18 "Generated_Source\\PSoC4/Pin_l293_IC2_EN_12.h"
 701              		.file 19 "Generated_Source\\PSoC4/Pin_l293_IC2_EN_34.h"
 702              		.file 20 "Generated_Source\\PSoC4/capsense.h"
 703              		.file 21 "Generated_Source\\PSoC4/capsense_CSHL.h"